target datalayout = "e-m:e-p270:32:32-p271:32:32-p272:64:64-i64:64-i128:128-f80:128-n8:16:32:64-S128"
target triple = "x86_64-pc-linux-gnu"

%"class.vcg::Point3" = type { [3 x float] }
%"class.vcg::Transform" = type { %"class.vcg::Similarityf", %"class.vcg::Point3", float }
%"class.vcg::Similarityf" = type { %"class.vcg::Similarity" }
%"class.vcg::Similarity" = type { %"class.vcg::Quaternion", %"class.vcg::Point3", float }
%"class.vcg::Quaternion" = type { %"class.vcg::Point4" }
%"class.vcg::Point4" = type { [4 x float] }
%"class.vcg::Matrix44" = type { %"struct.std::array" }
%"struct.std::array" = type { [16 x float] }

; Function Attrs: mustprogress nounwind uwtable
define linkonce_odr noundef nonnull align 4 dereferenceable(4) ptr @_ZNSt14__array_traitsIfLm16EE6_S_refERA16_Kfm(ptr noundef nonnull align 4 dereferenceable(64) %0, i64 noundef %1) #4 comdat align 2 {
  %3 = alloca ptr, align 8
  %4 = alloca i64, align 8
  store ptr %0, ptr %3, align 8
  store i64 %1, ptr %4, align 8
  %5 = load ptr, ptr %3, align 8
  %6 = load i64, ptr %4, align 8
  %7 = getelementptr inbounds [16 x float], ptr %5, i64 0, i64 %6
  ret ptr %7
}

; Function Attrs: mustprogress nounwind uwtable
define linkonce_odr noundef nonnull align 4 dereferenceable(4) ptr @_ZNSt5arrayIfLm16EEixEm(ptr noundef nonnull align 4 dereferenceable(64) %0, i64 noundef %1) #4 comdat align 2 {
  %3 = alloca ptr, align 8
  %4 = alloca i64, align 8
  store ptr %0, ptr %3, align 8
  store i64 %1, ptr %4, align 8
  %5 = load ptr, ptr %3, align 8
  %6 = getelementptr inbounds %"struct.std::array", ptr %5, i32 0, i32 0
  %7 = load i64, ptr %4, align 8
  %8 = call noundef nonnull align 4 dereferenceable(4) ptr @_ZNSt14__array_traitsIfLm16EE6_S_refERA16_Kfm(ptr noundef nonnull align 4 dereferenceable(64) %6, i64 noundef %7) #3
  ret ptr %8
}

; Function Attrs: mustprogress nounwind uwtable
define linkonce_odr noundef ptr @_ZNSt14__array_traitsIfLm16EE6_S_ptrERA16_Kf(ptr noundef nonnull align 4 dereferenceable(64) %0) #4 comdat align 2 {
  %2 = alloca ptr, align 8
  store ptr %0, ptr %2, align 8
  %3 = load ptr, ptr %2, align 8
  %4 = getelementptr inbounds [16 x float], ptr %3, i64 0, i64 0
  ret ptr %4
}

; Function Attrs: mustprogress nounwind uwtable
define linkonce_odr void @_ZSt4swapIfENSt9enable_ifIXsr6__and_ISt6__not_ISt15__is_tuple_likeIT_EESt21is_move_constructibleIS3_ESt18is_move_assignableIS3_EEE5valueEvE4typeERS3_SC_(ptr noundef nonnull align 4 dereferenceable(4) %0, ptr noundef nonnull align 4 dereferenceable(4) %1) #4 comdat {
  %3 = alloca ptr, align 8
  %4 = alloca ptr, align 8
  %5 = alloca float, align 4
  store ptr %0, ptr %3, align 8
  store ptr %1, ptr %4, align 8
  %6 = load ptr, ptr %3, align 8
  %7 = load float, ptr %6, align 4
  store float %7, ptr %5, align 4
  %8 = load ptr, ptr %4, align 8
  %9 = load float, ptr %8, align 4
  %10 = load ptr, ptr %3, align 8
  store float %9, ptr %10, align 4
  %11 = load float, ptr %5, align 4
  %12 = load ptr, ptr %4, align 8
  store float %11, ptr %12, align 4
  ret void
}

; Function Attrs: mustprogress nounwind uwtable
define linkonce_odr noundef nonnull align 4 dereferenceable(4) ptr @_ZN3vcg8Matrix44IfE9ElementAtEii(ptr noundef nonnull align 4 dereferenceable(64) %0, i32 noundef %1, i32 noundef %2) #4 comdat align 2 {
  %4 = alloca ptr, align 8
  %5 = alloca i32, align 4
  %6 = alloca i32, align 4
  store ptr %0, ptr %4, align 8
  store i32 %1, ptr %5, align 4
  store i32 %2, ptr %6, align 4
  %7 = load ptr, ptr %4, align 8
  %8 = getelementptr inbounds %"class.vcg::Matrix44", ptr %7, i32 0, i32 0
  %9 = load i32, ptr %5, align 4
  %10 = shl i32 %9, 2
  %11 = load i32, ptr %6, align 4
  %12 = add nsw i32 %10, %11
  %13 = sext i32 %12 to i64
  %14 = call noundef nonnull align 4 dereferenceable(4) ptr @_ZNSt5arrayIfLm16EEixEm(ptr noundef nonnull align 4 dereferenceable(64) %8, i64 noundef %13) #3
  ret ptr %14
}

; Function Attrs: mustprogress nounwind willreturn memory(none) uwtable
define linkonce_odr noundef ptr @_ZNSt5arrayIfLm16EE4dataEv(ptr noundef nonnull align 4 dereferenceable(64) %0) #14 comdat align 2 {
  %2 = alloca ptr, align 8
  store ptr %0, ptr %2, align 8
  %3 = load ptr, ptr %2, align 8
  %4 = getelementptr inbounds %"struct.std::array", ptr %3, i32 0, i32 0
  %5 = call noundef ptr @_ZNSt14__array_traitsIfLm16EE6_S_ptrERA16_Kf(ptr noundef nonnull align 4 dereferenceable(64) %4) #3
  ret ptr %5
}

; Function Attrs: mustprogress uwtable
define linkonce_odr noundef nonnull align 4 dereferenceable(64) ptr @_ZN3vcg9TransposeIfEERNS_8Matrix44IT_EES4_(ptr noundef nonnull align 4 dereferenceable(64) %0) #5 comdat {
  %2 = alloca ptr, align 8
  %3 = alloca i32, align 4
  %4 = alloca i32, align 4
  store ptr %0, ptr %2, align 8
  store i32 1, ptr %3, align 4
  br label %5

5:                                                ; preds = %26, %1
  %6 = load i32, ptr %3, align 4
  %7 = icmp slt i32 %6, 4
  br i1 %7, label %8, label %29

8:                                                ; preds = %5
  store i32 0, ptr %4, align 4
  br label %9

9:                                                ; preds = %22, %8
  %10 = load i32, ptr %4, align 4
  %11 = load i32, ptr %3, align 4
  %12 = icmp slt i32 %10, %11
  br i1 %12, label %13, label %25

13:                                               ; preds = %9
  %14 = load ptr, ptr %2, align 8
  %15 = load i32, ptr %3, align 4
  %16 = load i32, ptr %4, align 4
  %17 = call noundef nonnull align 4 dereferenceable(4) ptr @_ZN3vcg8Matrix44IfE9ElementAtEii(ptr noundef nonnull align 4 dereferenceable(64) %14, i32 noundef %15, i32 noundef %16)
  %18 = load ptr, ptr %2, align 8
  %19 = load i32, ptr %4, align 4
  %20 = load i32, ptr %3, align 4
  %21 = call noundef nonnull align 4 dereferenceable(4) ptr @_ZN3vcg8Matrix44IfE9ElementAtEii(ptr noundef nonnull align 4 dereferenceable(64) %18, i32 noundef %19, i32 noundef %20)
  call void @_ZSt4swapIfENSt9enable_ifIXsr6__and_ISt6__not_ISt15__is_tuple_likeIT_EESt21is_move_constructibleIS3_ESt18is_move_assignableIS3_EEE5valueEvE4typeERS3_SC_(ptr noundef nonnull align 4 dereferenceable(4) %17, ptr noundef nonnull align 4 dereferenceable(4) %21) #3
  br label %22

22:                                               ; preds = %13
  %23 = load i32, ptr %4, align 4
  %24 = add nsw i32 %23, 1
  store i32 %24, ptr %4, align 4
  br label %9, !llvm.loop !18

25:                                               ; preds = %9
  br label %26

26:                                               ; preds = %25
  %27 = load i32, ptr %3, align 4
  %28 = add nsw i32 %27, 1
  store i32 %28, ptr %3, align 4
  br label %5, !llvm.loop !19

29:                                               ; preds = %5
  %30 = load ptr, ptr %2, align 8
  ret ptr %30
}

; Function Attrs: mustprogress nounwind uwtable
define linkonce_odr void @_ZN3vcg6Point3IfEC2Efff(ptr noundef nonnull align 4 dereferenceable(12) %0, float noundef %1, float noundef %2, float noundef %3) unnamed_addr #4 comdat align 2 {
  %5 = alloca ptr, align 8
  %6 = alloca float, align 4
  %7 = alloca float, align 4
  %8 = alloca float, align 4
  store ptr %0, ptr %5, align 8
  store float %1, ptr %6, align 4
  store float %2, ptr %7, align 4
  store float %3, ptr %8, align 4
  %9 = load ptr, ptr %5, align 8
  %10 = load float, ptr %6, align 4
  %11 = getelementptr inbounds %"class.vcg::Point3", ptr %9, i32 0, i32 0
  %12 = getelementptr inbounds [3 x float], ptr %11, i64 0, i64 0
  store float %10, ptr %12, align 4
  %13 = load float, ptr %7, align 4
  %14 = getelementptr inbounds %"class.vcg::Point3", ptr %9, i32 0, i32 0
  %15 = getelementptr inbounds [3 x float], ptr %14, i64 0, i64 1
  store float %13, ptr %15, align 4
  %16 = load float, ptr %8, align 4
  %17 = getelementptr inbounds %"class.vcg::Point3", ptr %9, i32 0, i32 0
  %18 = getelementptr inbounds [3 x float], ptr %17, i64 0, i64 2
  store float %16, ptr %18, align 4
  ret void
}

; Function Attrs: mustprogress nounwind uwtable
define linkonce_odr noundef ptr @_ZN3vcg8Matrix44IfE1VEv(ptr noundef nonnull align 4 dereferenceable(64) %0) #4 comdat align 2 {
  %2 = alloca ptr, align 8
  store ptr %0, ptr %2, align 8
  %3 = load ptr, ptr %2, align 8
  %4 = getelementptr inbounds %"class.vcg::Matrix44", ptr %3, i32 0, i32 0
  %5 = call noundef ptr @_ZNSt5arrayIfLm16EE4dataEv(ptr noundef nonnull align 4 dereferenceable(64) %4) #22
  ret ptr %5
}

; Function Attrs: mustprogress uwtable
define linkonce_odr void @_ZNK3vcg8Matrix44IfE9transposeEv(ptr dead_on_unwind noalias writable sret(%"class.vcg::Matrix44") align 4 %0, ptr noundef nonnull align 4 dereferenceable(64) %1) #5 comdat align 2 personality ptr @__gxx_personality_v0 {
  %3 = alloca ptr, align 8
  %4 = alloca ptr, align 8
  %5 = alloca i1, align 1
  %6 = alloca ptr, align 8
  %7 = alloca i32, align 4
  store ptr %0, ptr %3, align 8
  store ptr %1, ptr %4, align 8
  %8 = load ptr, ptr %4, align 8
  store i1 false, ptr %5, align 1
  call void @llvm.memcpy.p0.p0.i64(ptr align 4 %0, ptr align 4 %8, i64 64, i1 false)
  %9 = invoke noundef nonnull align 4 dereferenceable(64) ptr @_ZN3vcg9TransposeIfEERNS_8Matrix44IT_EES4_(ptr noundef nonnull align 4 dereferenceable(64) %0)
          to label %10 unwind label %12

10:                                               ; preds = %2
  store i1 true, ptr %5, align 1
  %11 = load i1, ptr %5, align 1
  br i1 %11, label %17, label %16

12:                                               ; preds = %2
  %13 = landingpad { ptr, i32 }
          cleanup
  %14 = extractvalue { ptr, i32 } %13, 0
  store ptr %14, ptr %6, align 8
  %15 = extractvalue { ptr, i32 } %13, 1
  store i32 %15, ptr %7, align 4
  call void @_ZN3vcg8Matrix44IfED2Ev(ptr noundef nonnull align 4 dereferenceable(64) %0) #3
  br label %18

16:                                               ; preds = %10
  call void @_ZN3vcg8Matrix44IfED2Ev(ptr noundef nonnull align 4 dereferenceable(64) %0) #3
  br label %17

17:                                               ; preds = %16, %10
  ret void

18:                                               ; preds = %12
  %19 = load ptr, ptr %6, align 8
  %20 = load i32, ptr %7, align 4
  %21 = insertvalue { ptr, i32 } poison, ptr %19, 0
  %22 = insertvalue { ptr, i32 } %21, i32 %20, 1
  resume { ptr, i32 } %22
}

; Function Attrs: mustprogress nounwind uwtable
define linkonce_odr noundef nonnull align 4 dereferenceable(4) ptr @_ZNK3vcg6Point3IfEixEi(ptr noundef nonnull align 4 dereferenceable(12) %0, i32 noundef %1) #4 comdat align 2 {
  %3 = alloca ptr, align 8
  %4 = alloca i32, align 4
  store ptr %0, ptr %3, align 8
  store i32 %1, ptr %4, align 4
  %5 = load ptr, ptr %3, align 8
  %6 = getelementptr inbounds %"class.vcg::Point3", ptr %5, i32 0, i32 0
  %7 = load i32, ptr %4, align 4
  %8 = sext i32 %7 to i64
  %9 = getelementptr inbounds [3 x float], ptr %6, i64 0, i64 %8
  ret ptr %9
}

; Function Attrs: mustprogress uwtable
define linkonce_odr { <2 x float>, float } @_ZNK3vcg6Point3IfEngEv(ptr noundef nonnull align 4 dereferenceable(12) %0) #5 comdat align 2 {
  %2 = alloca %"class.vcg::Point3", align 4
  %3 = alloca ptr, align 8
  %4 = alloca { <2 x float>, float }, align 8
  store ptr %0, ptr %3, align 8
  %5 = load ptr, ptr %3, align 8
  %6 = getelementptr inbounds %"class.vcg::Point3", ptr %5, i32 0, i32 0
  %7 = getelementptr inbounds [3 x float], ptr %6, i64 0, i64 0
  %8 = load float, ptr %7, align 4
  %9 = fneg float %8
  %10 = getelementptr inbounds %"class.vcg::Point3", ptr %5, i32 0, i32 0
  %11 = getelementptr inbounds [3 x float], ptr %10, i64 0, i64 1
  %12 = load float, ptr %11, align 4
  %13 = fneg float %12
  %14 = getelementptr inbounds %"class.vcg::Point3", ptr %5, i32 0, i32 0
  %15 = getelementptr inbounds [3 x float], ptr %14, i64 0, i64 2
  %16 = load float, ptr %15, align 4
  %17 = fneg float %16
  call void @_ZN3vcg6Point3IfEC2Efff(ptr noundef nonnull align 4 dereferenceable(12) %2, float noundef %9, float noundef %13, float noundef %17)
  %18 = getelementptr inbounds %"class.vcg::Point3", ptr %2, i32 0, i32 0
  call void @llvm.memcpy.p0.p0.i64(ptr align 8 %4, ptr align 4 %18, i64 12, i1 false)
  %19 = load { <2 x float>, float }, ptr %4, align 8
  ret { <2 x float>, float } %19
}

; Function Attrs: mustprogress nounwind uwtable
define linkonce_odr void @_ZN3vcg8Matrix44IfED2Ev(ptr noundef nonnull align 4 dereferenceable(64) %0) unnamed_addr #4 comdat align 2 {
  %2 = alloca ptr, align 8
  store ptr %0, ptr %2, align 8
  ret void
}

; Function Attrs: mustprogress uwtable
define linkonce_odr void @_ZN3vcg12glMultMatrixERKNS_8Matrix44IfEE(ptr noundef nonnull align 4 dereferenceable(64) %0) #5 comdat personality ptr @__gxx_personality_v0 {
  %2 = alloca ptr, align 8
  %3 = alloca %"class.vcg::Matrix44", align 4
  %4 = alloca ptr, align 8
  %5 = alloca i32, align 4
  store ptr %0, ptr %2, align 8
  %6 = load ptr, ptr %2, align 8
  call void @_ZNK3vcg8Matrix44IfE9transposeEv(ptr dead_on_unwind writable sret(%"class.vcg::Matrix44") align 4 %3, ptr noundef nonnull align 4 dereferenceable(64) %6)
  %7 = call noundef ptr @_ZN3vcg8Matrix44IfE1VEv(ptr noundef nonnull align 4 dereferenceable(64) %3)
  invoke void @glMultMatrixf(ptr noundef %7)
          to label %8 unwind label %9

8:                                                ; preds = %1
  call void @_ZN3vcg8Matrix44IfED2Ev(ptr noundef nonnull align 4 dereferenceable(64) %3) #3
  ret void

9:                                                ; preds = %1
  %10 = landingpad { ptr, i32 }
          cleanup
  %11 = extractvalue { ptr, i32 } %10, 0
  store ptr %11, ptr %4, align 8
  %12 = extractvalue { ptr, i32 } %10, 1
  store i32 %12, ptr %5, align 4
  call void @_ZN3vcg8Matrix44IfED2Ev(ptr noundef nonnull align 4 dereferenceable(64) %3) #3
  br label %13

13:                                               ; preds = %9
  %14 = load ptr, ptr %4, align 8
  %15 = load i32, ptr %5, align 4
  %16 = insertvalue { ptr, i32 } poison, ptr %14, 0
  %17 = insertvalue { ptr, i32 } %16, i32 %15, 1
  resume { ptr, i32 } %17
}

; Function Attrs: mustprogress uwtable
define linkonce_odr void @_ZN3vcg11glTranslateERKNS_6Point3IfEE(ptr noundef nonnull align 4 dereferenceable(12) %0) #5 comdat {
  %2 = alloca ptr, align 8
  store ptr %0, ptr %2, align 8
  %3 = load ptr, ptr %2, align 8
  %4 = call noundef nonnull align 4 dereferenceable(4) ptr @_ZNK3vcg6Point3IfEixEi(ptr noundef nonnull align 4 dereferenceable(12) %3, i32 noundef 0)
  %5 = load float, ptr %4, align 4
  %6 = load ptr, ptr %2, align 8
  %7 = call noundef nonnull align 4 dereferenceable(4) ptr @_ZNK3vcg6Point3IfEixEi(ptr noundef nonnull align 4 dereferenceable(12) %6, i32 noundef 1)
  %8 = load float, ptr %7, align 4
  %9 = load ptr, ptr %2, align 8
  %10 = call noundef nonnull align 4 dereferenceable(4) ptr @_ZNK3vcg6Point3IfEixEi(ptr noundef nonnull align 4 dereferenceable(12) %9, i32 noundef 2)
  %11 = load float, ptr %10, align 4
  call void @glTranslatef(float noundef %5, float noundef %8, float noundef %11)
  ret void
}

; Function Attrs: mustprogress uwtable
define void @_ZN3vcg9Trackball5ApplyEv(ptr noundef nonnull align 8 dereferenceable(597) %0) #16 align 2 personality ptr @__gxx_personality_v0 {
  %2 = alloca ptr, align 8
  %3 = alloca %"class.vcg::Matrix44", align 4
  %4 = alloca ptr, align 8
  %5 = alloca i32, align 4
  %6 = alloca %"class.vcg::Point3", align 4
  %7 = alloca { <2 x float>, float }, align 8
  store ptr %0, ptr %2, align 8
  %8 = load ptr, ptr %2, align 8
  %9 = getelementptr inbounds %"class.vcg::Transform", ptr %8, i32 0, i32 1
  call void @_ZN3vcg11glTranslateERKNS_6Point3IfEE(ptr noundef nonnull align 4 dereferenceable(12) %9)
  %10 = getelementptr inbounds %"class.vcg::Transform", ptr %8, i32 0, i32 0
  call void @_ZNK3vcg10SimilarityIfNS_10QuaternionIfEEE6MatrixEv(ptr dead_on_unwind writable sret(%"class.vcg::Matrix44") align 4 %3, ptr noundef nonnull align 4 dereferenceable(32) %10)
  invoke void @_ZN3vcg12glMultMatrixERKNS_8Matrix44IfEE(ptr noundef nonnull align 4 dereferenceable(64) %3)
          to label %11 unwind label %15

11:                                               ; preds = %1
  call void @_ZN3vcg8Matrix44IfED2Ev(ptr noundef nonnull align 4 dereferenceable(64) %3) #3
  %12 = getelementptr inbounds %"class.vcg::Transform", ptr %8, i32 0, i32 1
  %13 = call { <2 x float>, float } @_ZNK3vcg6Point3IfEngEv(ptr noundef nonnull align 4 dereferenceable(12) %12)
  %14 = getelementptr inbounds %"class.vcg::Point3", ptr %6, i32 0, i32 0
  store { <2 x float>, float } %13, ptr %7, align 8
  call void @llvm.memcpy.p0.p0.i64(ptr align 4 %14, ptr align 8 %7, i64 12, i1 false)
  call void @_ZN3vcg11glTranslateERKNS_6Point3IfEE(ptr noundef nonnull align 4 dereferenceable(12) %6)
  ret void

15:                                               ; preds = %1
  %16 = landingpad { ptr, i32 }
          cleanup
  %17 = extractvalue { ptr, i32 } %16, 0
  store ptr %17, ptr %4, align 8
  %18 = extractvalue { ptr, i32 } %16, 1
  store i32 %18, ptr %5, align 4
  call void @_ZN3vcg8Matrix44IfED2Ev(ptr noundef nonnull align 4 dereferenceable(64) %3) #3
  br label %19

19:                                               ; preds = %15
  %20 = load ptr, ptr %4, align 8
  %21 = load i32, ptr %5, align 4
  %22 = insertvalue { ptr, i32 } poison, ptr %20, 0
  %23 = insertvalue { ptr, i32 } %22, i32 %21, 1
  resume { ptr, i32 } %23
}