; Function Attrs: mustprogress uwtable
define void @_ZN3vcg9Trackball5ApplyEv(ptr noundef nonnull align 8 dereferenceable(597) %0) local_unnamed_addr #15 align 2 personality ptr @__gxx_personality_v0 {
  %2 = alloca %"class.vcg::Matrix44", align 4
  %3 = alloca %"class.vcg::Matrix44", align 4
  %4 = getelementptr inbounds i8, ptr %0, i64 32
  %5 = load float, ptr %4, align 8
  %6 = getelementptr inbounds i8, ptr %0, i64 36
  %7 = load float, ptr %6, align 4
  %8 = getelementptr inbounds i8, ptr %0, i64 40
  %9 = load float, ptr %8, align 8
  tail call void @glTranslatef(float noundef %5, float noundef %7, float noundef %9)
  call void @_ZNK3vcg10SimilarityIfNS_10QuaternionIfEEE6MatrixEv(ptr dead_on_unwind nonnull writable sret(%"class.vcg::Matrix44") align 4 %3, ptr noundef nonnull align 4 dereferenceable(32) %0)
  call void @llvm.lifetime.start.p0(i64 64, ptr nonnull %2)
  call void @llvm.memcpy.p0.p0.i64(ptr noundef nonnull align 4 dereferenceable(64) %2, ptr noundef nonnull align 4 dereferenceable(64) %3, i64 64, i1 false)
  br label %.preheader.i.i.i

.preheader.i.i.i:                                 ; preds = %19, %1
  %indvars.iv15.i.i.i = phi i64 [ 1, %1 ], [ %indvars.iv.next16.i.i.i, %19 ]
  %10 = shl nuw nsw i64 %indvars.iv15.i.i.i, 2
  br label %11

11:                                               ; preds = %11, %.preheader.i.i.i
  %indvars.iv.i.i.i = phi i64 [ 0, %.preheader.i.i.i ], [ %indvars.iv.next.i.i.i, %11 ]
  %12 = add nuw nsw i64 %indvars.iv.i.i.i, %10
  %13 = getelementptr inbounds [16 x float], ptr %2, i64 0, i64 %12
  %14 = shl i64 %indvars.iv.i.i.i, 2
  %15 = add nuw nsw i64 %14, %indvars.iv15.i.i.i
  %16 = getelementptr inbounds [16 x float], ptr %2, i64 0, i64 %15
  %17 = load float, ptr %13, align 4, !alias.scope !33
  %18 = load float, ptr %16, align 4, !alias.scope !33
  store float %18, ptr %13, align 4, !alias.scope !33
  store float %17, ptr %16, align 4, !alias.scope !33
  %indvars.iv.next.i.i.i = add nuw nsw i64 %indvars.iv.i.i.i, 1
  %exitcond.not.i.i.i = icmp eq i64 %indvars.iv.next.i.i.i, %indvars.iv15.i.i.i
  br i1 %exitcond.not.i.i.i, label %19, label %11, !llvm.loop !18

19:                                               ; preds = %11
  %indvars.iv.next16.i.i.i = add nuw nsw i64 %indvars.iv15.i.i.i, 1
  %exitcond18.not.i.i.i = icmp eq i64 %indvars.iv.next16.i.i.i, 4
  br i1 %exitcond18.not.i.i.i, label %_ZNK3vcg8Matrix44IfE9transposeEv.exit.i, label %.preheader.i.i.i, !llvm.loop !19

_ZNK3vcg8Matrix44IfE9transposeEv.exit.i:          ; preds = %19
  call void @glMultMatrixf(ptr noundef nonnull %2)
  call void @llvm.lifetime.end.p0(i64 64, ptr nonnull %2)
  %20 = load float, ptr %4, align 8
  %21 = fneg float %20
  %22 = load float, ptr %6, align 4
  %23 = fneg float %22
  %24 = load float, ptr %8, align 8
  %25 = fneg float %24
  call void @glTranslatef(float noundef %21, float noundef %23, float noundef %25)
  ret void
}